; Function Attrs: mustprogress nofree nounwind uwtable
define noundef zeroext i1 @_ZN3re212re2_internal5ParseItEEbPKcmPT_i(ptr noundef readonly captures(none) %str, i64 noundef %n, ptr noundef writeonly %dest, i32 noundef %radix) local_unnamed_addr #17 {
entry:
  %r = alloca i64, align 8
  %call = call noundef zeroext i1 @_ZN3re212re2_internal5ParseImEEbPKcmPT_i(ptr noundef %str, i64 noundef %n, ptr noundef nonnull %r, i32 noundef %radix)
  br i1 %call, label %if.end, label %return

if.end:                                           ; preds = %entry
  %0 = load i64, ptr %r, align 8
  %conv = trunc i64 %0 to i16
  %cmp.not = icmp ult i64 %0, 65536
  br i1 %cmp.not, label %if.end3, label %return

if.end3:                                          ; preds = %if.end
  %cmp4 = icmp eq ptr %dest, null
  br i1 %cmp4, label %return, label %if.end6

if.end6:                                          ; preds = %if.end3
  store i16 %conv, ptr %dest, align 2
  br label %return

return:                                           ; preds = %if.end3, %if.end, %entry, %if.end6
  %retval.0 = phi i1 [ true, %if.end6 ], [ false, %entry ], [ false, %if.end ], [ true, %if.end3 ]
  ret i1 %retval.0
}